
./vuln:     file format elf64-x86-64


Disassembly of section .init:

0000000000001000 <_init>:
    1000:	f3 0f 1e fa          	endbr64 
    1004:	48 83 ec 08          	sub    $0x8,%rsp
    1008:	48 8b 05 d9 2f 00 00 	mov    0x2fd9(%rip),%rax        # 3fe8 <__gmon_start__@Base>
    100f:	48 85 c0             	test   %rax,%rax
    1012:	74 02                	je     1016 <_init+0x16>
    1014:	ff d0                	call   *%rax
    1016:	48 83 c4 08          	add    $0x8,%rsp
    101a:	c3                   	ret    

Disassembly of section .plt:

0000000000001020 <.plt>:
    1020:	ff 35 4a 2f 00 00    	push   0x2f4a(%rip)        # 3f70 <_GLOBAL_OFFSET_TABLE_+0x8>
    1026:	f2 ff 25 4b 2f 00 00 	bnd jmp *0x2f4b(%rip)        # 3f78 <_GLOBAL_OFFSET_TABLE_+0x10>
    102d:	0f 1f 00             	nopl   (%rax)
    1030:	f3 0f 1e fa          	endbr64 
    1034:	68 00 00 00 00       	push   $0x0
    1039:	f2 e9 e1 ff ff ff    	bnd jmp 1020 <_init+0x20>
    103f:	90                   	nop
    1040:	f3 0f 1e fa          	endbr64 
    1044:	68 01 00 00 00       	push   $0x1
    1049:	f2 e9 d1 ff ff ff    	bnd jmp 1020 <_init+0x20>
    104f:	90                   	nop
    1050:	f3 0f 1e fa          	endbr64 
    1054:	68 02 00 00 00       	push   $0x2
    1059:	f2 e9 c1 ff ff ff    	bnd jmp 1020 <_init+0x20>
    105f:	90                   	nop
    1060:	f3 0f 1e fa          	endbr64 
    1064:	68 03 00 00 00       	push   $0x3
    1069:	f2 e9 b1 ff ff ff    	bnd jmp 1020 <_init+0x20>
    106f:	90                   	nop
    1070:	f3 0f 1e fa          	endbr64 
    1074:	68 04 00 00 00       	push   $0x4
    1079:	f2 e9 a1 ff ff ff    	bnd jmp 1020 <_init+0x20>
    107f:	90                   	nop
    1080:	f3 0f 1e fa          	endbr64 
    1084:	68 05 00 00 00       	push   $0x5
    1089:	f2 e9 91 ff ff ff    	bnd jmp 1020 <_init+0x20>
    108f:	90                   	nop
    1090:	f3 0f 1e fa          	endbr64 
    1094:	68 06 00 00 00       	push   $0x6
    1099:	f2 e9 81 ff ff ff    	bnd jmp 1020 <_init+0x20>
    109f:	90                   	nop
    10a0:	f3 0f 1e fa          	endbr64 
    10a4:	68 07 00 00 00       	push   $0x7
    10a9:	f2 e9 71 ff ff ff    	bnd jmp 1020 <_init+0x20>
    10af:	90                   	nop
    10b0:	f3 0f 1e fa          	endbr64 
    10b4:	68 08 00 00 00       	push   $0x8
    10b9:	f2 e9 61 ff ff ff    	bnd jmp 1020 <_init+0x20>
    10bf:	90                   	nop
    10c0:	f3 0f 1e fa          	endbr64 
    10c4:	68 09 00 00 00       	push   $0x9
    10c9:	f2 e9 51 ff ff ff    	bnd jmp 1020 <_init+0x20>
    10cf:	90                   	nop
    10d0:	f3 0f 1e fa          	endbr64 
    10d4:	68 0a 00 00 00       	push   $0xa
    10d9:	f2 e9 41 ff ff ff    	bnd jmp 1020 <_init+0x20>
    10df:	90                   	nop

Disassembly of section .plt.got:

00000000000010e0 <__cxa_finalize@plt>:
    10e0:	f3 0f 1e fa          	endbr64 
    10e4:	f2 ff 25 0d 2f 00 00 	bnd jmp *0x2f0d(%rip)        # 3ff8 <__cxa_finalize@GLIBC_2.2.5>
    10eb:	0f 1f 44 00 00       	nopl   0x0(%rax,%rax,1)

Disassembly of section .plt.sec:

00000000000010f0 <putchar@plt>:
    10f0:	f3 0f 1e fa          	endbr64 
    10f4:	f2 ff 25 85 2e 00 00 	bnd jmp *0x2e85(%rip)        # 3f80 <putchar@GLIBC_2.2.5>
    10fb:	0f 1f 44 00 00       	nopl   0x0(%rax,%rax,1)

0000000000001100 <puts@plt>:
    1100:	f3 0f 1e fa          	endbr64 
    1104:	f2 ff 25 7d 2e 00 00 	bnd jmp *0x2e7d(%rip)        # 3f88 <puts@GLIBC_2.2.5>
    110b:	0f 1f 44 00 00       	nopl   0x0(%rax,%rax,1)

0000000000001110 <fclose@plt>:
    1110:	f3 0f 1e fa          	endbr64 
    1114:	f2 ff 25 75 2e 00 00 	bnd jmp *0x2e75(%rip)        # 3f90 <fclose@GLIBC_2.2.5>
    111b:	0f 1f 44 00 00       	nopl   0x0(%rax,%rax,1)

0000000000001120 <__stack_chk_fail@plt>:
    1120:	f3 0f 1e fa          	endbr64 
    1124:	f2 ff 25 6d 2e 00 00 	bnd jmp *0x2e6d(%rip)        # 3f98 <__stack_chk_fail@GLIBC_2.4>
    112b:	0f 1f 44 00 00       	nopl   0x0(%rax,%rax,1)

0000000000001130 <printf@plt>:
    1130:	f3 0f 1e fa          	endbr64 
    1134:	f2 ff 25 65 2e 00 00 	bnd jmp *0x2e65(%rip)        # 3fa0 <printf@GLIBC_2.2.5>
    113b:	0f 1f 44 00 00       	nopl   0x0(%rax,%rax,1)

0000000000001140 <fgetc@plt>:
    1140:	f3 0f 1e fa          	endbr64 
    1144:	f2 ff 25 5d 2e 00 00 	bnd jmp *0x2e5d(%rip)        # 3fa8 <fgetc@GLIBC_2.2.5>
    114b:	0f 1f 44 00 00       	nopl   0x0(%rax,%rax,1)

0000000000001150 <signal@plt>:
    1150:	f3 0f 1e fa          	endbr64 
    1154:	f2 ff 25 55 2e 00 00 	bnd jmp *0x2e55(%rip)        # 3fb0 <signal@GLIBC_2.2.5>
    115b:	0f 1f 44 00 00       	nopl   0x0(%rax,%rax,1)

0000000000001160 <setvbuf@plt>:
    1160:	f3 0f 1e fa          	endbr64 
    1164:	f2 ff 25 4d 2e 00 00 	bnd jmp *0x2e4d(%rip)        # 3fb8 <setvbuf@GLIBC_2.2.5>
    116b:	0f 1f 44 00 00       	nopl   0x0(%rax,%rax,1)

0000000000001170 <fopen@plt>:
    1170:	f3 0f 1e fa          	endbr64 
    1174:	f2 ff 25 45 2e 00 00 	bnd jmp *0x2e45(%rip)        # 3fc0 <fopen@GLIBC_2.2.5>
    117b:	0f 1f 44 00 00       	nopl   0x0(%rax,%rax,1)

0000000000001180 <__isoc99_scanf@plt>:
    1180:	f3 0f 1e fa          	endbr64 
    1184:	f2 ff 25 3d 2e 00 00 	bnd jmp *0x2e3d(%rip)        # 3fc8 <__isoc99_scanf@GLIBC_2.7>
    118b:	0f 1f 44 00 00       	nopl   0x0(%rax,%rax,1)

0000000000001190 <exit@plt>:
    1190:	f3 0f 1e fa          	endbr64 
    1194:	f2 ff 25 35 2e 00 00 	bnd jmp *0x2e35(%rip)        # 3fd0 <exit@GLIBC_2.2.5>
    119b:	0f 1f 44 00 00       	nopl   0x0(%rax,%rax,1)

Disassembly of section .text:

00000000000011a0 <_start>:
    11a0:	f3 0f 1e fa          	endbr64 
    11a4:	31 ed                	xor    %ebp,%ebp
    11a6:	49 89 d1             	mov    %rdx,%r9
    11a9:	5e                   	pop    %rsi
    11aa:	48 89 e2             	mov    %rsp,%rdx
    11ad:	48 83 e4 f0          	and    $0xfffffffffffffff0,%rsp
    11b1:	50                   	push   %rax
    11b2:	54                   	push   %rsp
    11b3:	45 31 c0             	xor    %r8d,%r8d
    11b6:	31 c9                	xor    %ecx,%ecx
    11b8:	48 8d 3d 8d 01 00 00 	lea    0x18d(%rip),%rdi        # 134c <main>
    11bf:	ff 15 13 2e 00 00    	call   *0x2e13(%rip)        # 3fd8 <__libc_start_main@GLIBC_2.34>
    11c5:	f4                   	hlt    
    11c6:	66 2e 0f 1f 84 00 00 	cs nopw 0x0(%rax,%rax,1)
    11cd:	00 00 00 

00000000000011d0 <deregister_tm_clones>:
    11d0:	48 8d 3d 39 2e 00 00 	lea    0x2e39(%rip),%rdi        # 4010 <stdout@GLIBC_2.2.5>
    11d7:	48 8d 05 32 2e 00 00 	lea    0x2e32(%rip),%rax        # 4010 <stdout@GLIBC_2.2.5>
    11de:	48 39 f8             	cmp    %rdi,%rax
    11e1:	74 15                	je     11f8 <deregister_tm_clones+0x28>
    11e3:	48 8b 05 f6 2d 00 00 	mov    0x2df6(%rip),%rax        # 3fe0 <_ITM_deregisterTMCloneTable@Base>
    11ea:	48 85 c0             	test   %rax,%rax
    11ed:	74 09                	je     11f8 <deregister_tm_clones+0x28>
    11ef:	ff e0                	jmp    *%rax
    11f1:	0f 1f 80 00 00 00 00 	nopl   0x0(%rax)
    11f8:	c3                   	ret    
    11f9:	0f 1f 80 00 00 00 00 	nopl   0x0(%rax)

0000000000001200 <register_tm_clones>:
    1200:	48 8d 3d 09 2e 00 00 	lea    0x2e09(%rip),%rdi        # 4010 <stdout@GLIBC_2.2.5>
    1207:	48 8d 35 02 2e 00 00 	lea    0x2e02(%rip),%rsi        # 4010 <stdout@GLIBC_2.2.5>
    120e:	48 29 fe             	sub    %rdi,%rsi
    1211:	48 89 f0             	mov    %rsi,%rax
    1214:	48 c1 ee 3f          	shr    $0x3f,%rsi
    1218:	48 c1 f8 03          	sar    $0x3,%rax
    121c:	48 01 c6             	add    %rax,%rsi
    121f:	48 d1 fe             	sar    %rsi
    1222:	74 14                	je     1238 <register_tm_clones+0x38>
    1224:	48 8b 05 c5 2d 00 00 	mov    0x2dc5(%rip),%rax        # 3ff0 <_ITM_registerTMCloneTable@Base>
    122b:	48 85 c0             	test   %rax,%rax
    122e:	74 08                	je     1238 <register_tm_clones+0x38>
    1230:	ff e0                	jmp    *%rax
    1232:	66 0f 1f 44 00 00    	nopw   0x0(%rax,%rax,1)
    1238:	c3                   	ret    
    1239:	0f 1f 80 00 00 00 00 	nopl   0x0(%rax)

0000000000001240 <__do_global_dtors_aux>:
    1240:	f3 0f 1e fa          	endbr64 
    1244:	80 3d cd 2d 00 00 00 	cmpb   $0x0,0x2dcd(%rip)        # 4018 <completed.0>
    124b:	75 2b                	jne    1278 <__do_global_dtors_aux+0x38>
    124d:	55                   	push   %rbp
    124e:	48 83 3d a2 2d 00 00 	cmpq   $0x0,0x2da2(%rip)        # 3ff8 <__cxa_finalize@GLIBC_2.2.5>
    1255:	00 
    1256:	48 89 e5             	mov    %rsp,%rbp
    1259:	74 0c                	je     1267 <__do_global_dtors_aux+0x27>
    125b:	48 8b 3d a6 2d 00 00 	mov    0x2da6(%rip),%rdi        # 4008 <__dso_handle>
    1262:	e8 79 fe ff ff       	call   10e0 <__cxa_finalize@plt>
    1267:	e8 64 ff ff ff       	call   11d0 <deregister_tm_clones>
    126c:	c6 05 a5 2d 00 00 01 	movb   $0x1,0x2da5(%rip)        # 4018 <completed.0>
    1273:	5d                   	pop    %rbp
    1274:	c3                   	ret    
    1275:	0f 1f 00             	nopl   (%rax)
    1278:	c3                   	ret    
    1279:	0f 1f 80 00 00 00 00 	nopl   0x0(%rax)

0000000000001280 <frame_dummy>:
    1280:	f3 0f 1e fa          	endbr64 
    1284:	e9 77 ff ff ff       	jmp    1200 <register_tm_clones>

0000000000001289 <segfault_handler>:
    1289:	f3 0f 1e fa          	endbr64 
    128d:	55                   	push   %rbp
    128e:	48 89 e5             	mov    %rsp,%rbp
    1291:	48 8d 05 70 0d 00 00 	lea    0xd70(%rip),%rax        # 2008 <_IO_stdin_used+0x8>
    1298:	48 89 c7             	mov    %rax,%rdi
    129b:	e8 60 fe ff ff       	call   1100 <puts@plt>
    12a0:	bf 00 00 00 00       	mov    $0x0,%edi
    12a5:	e8 e6 fe ff ff       	call   1190 <exit@plt>

00000000000012aa <win>:
    12aa:	f3 0f 1e fa          	endbr64 
    12ae:	55                   	push   %rbp
    12af:	48 89 e5             	mov    %rsp,%rbp
    12b2:	48 83 ec 10          	sub    $0x10,%rsp
    12b6:	48 8d 05 71 0d 00 00 	lea    0xd71(%rip),%rax        # 202e <_IO_stdin_used+0x2e>
    12bd:	48 89 c7             	mov    %rax,%rdi
    12c0:	e8 3b fe ff ff       	call   1100 <puts@plt>
    12c5:	48 8d 05 6b 0d 00 00 	lea    0xd6b(%rip),%rax        # 2037 <_IO_stdin_used+0x37>
    12cc:	48 89 c6             	mov    %rax,%rsi
    12cf:	48 8d 05 63 0d 00 00 	lea    0xd63(%rip),%rax        # 2039 <_IO_stdin_used+0x39>
    12d6:	48 89 c7             	mov    %rax,%rdi
    12d9:	e8 92 fe ff ff       	call   1170 <fopen@plt>
    12de:	48 89 45 f8          	mov    %rax,-0x8(%rbp)
    12e2:	48 83 7d f8 00       	cmpq   $0x0,-0x8(%rbp)
    12e7:	75 19                	jne    1302 <win+0x58>
    12e9:	48 8d 05 52 0d 00 00 	lea    0xd52(%rip),%rax        # 2042 <_IO_stdin_used+0x42>
    12f0:	48 89 c7             	mov    %rax,%rdi
    12f3:	e8 08 fe ff ff       	call   1100 <puts@plt>
    12f8:	bf 00 00 00 00       	mov    $0x0,%edi
    12fd:	e8 8e fe ff ff       	call   1190 <exit@plt>
    1302:	48 8b 45 f8          	mov    -0x8(%rbp),%rax
    1306:	48 89 c7             	mov    %rax,%rdi
    1309:	e8 32 fe ff ff       	call   1140 <fgetc@plt>
    130e:	88 45 f7             	mov    %al,-0x9(%rbp)
    1311:	eb 1a                	jmp    132d <win+0x83>
    1313:	0f be 45 f7          	movsbl -0x9(%rbp),%eax
    1317:	89 c7                	mov    %eax,%edi
    1319:	e8 d2 fd ff ff       	call   10f0 <putchar@plt>
    131e:	48 8b 45 f8          	mov    -0x8(%rbp),%rax
    1322:	48 89 c7             	mov    %rax,%rdi
    1325:	e8 16 fe ff ff       	call   1140 <fgetc@plt>
    132a:	88 45 f7             	mov    %al,-0x9(%rbp)
    132d:	80 7d f7 ff          	cmpb   $0xff,-0x9(%rbp)
    1331:	75 e0                	jne    1313 <win+0x69>
    1333:	bf 0a 00 00 00       	mov    $0xa,%edi
    1338:	e8 b3 fd ff ff       	call   10f0 <putchar@plt>
    133d:	48 8b 45 f8          	mov    -0x8(%rbp),%rax
    1341:	48 89 c7             	mov    %rax,%rdi
    1344:	e8 c7 fd ff ff       	call   1110 <fclose@plt>
    1349:	90                   	nop
    134a:	c9                   	leave  
    134b:	c3                   	ret    

000000000000134c <main>:
    134c:	f3 0f 1e fa          	endbr64 
    1350:	55                   	push   %rbp
    1351:	48 89 e5             	mov    %rsp,%rbp
    1354:	48 83 ec 20          	sub    $0x20,%rsp
    1358:	64 48 8b 04 25 28 00 	mov    %fs:0x28,%rax
    135f:	00 00 
    1361:	48 89 45 f8          	mov    %rax,-0x8(%rbp)
    1365:	31 c0                	xor    %eax,%eax
    1367:	48 8d 05 1b ff ff ff 	lea    -0xe5(%rip),%rax        # 1289 <segfault_handler>
    136e:	48 89 c6             	mov    %rax,%rsi
    1371:	bf 0b 00 00 00       	mov    $0xb,%edi
    1376:	e8 d5 fd ff ff       	call   1150 <signal@plt>
    137b:	48 8b 05 8e 2c 00 00 	mov    0x2c8e(%rip),%rax        # 4010 <stdout@GLIBC_2.2.5>
    1382:	b9 00 00 00 00       	mov    $0x0,%ecx
    1387:	ba 02 00 00 00       	mov    $0x2,%edx
    138c:	be 00 00 00 00       	mov    $0x0,%esi
    1391:	48 89 c7             	mov    %rax,%rdi
    1394:	e8 c7 fd ff ff       	call   1160 <setvbuf@plt>
    1399:	48 8d 05 ac ff ff ff 	lea    -0x54(%rip),%rax        # 134c <main>
    13a0:	48 89 c6             	mov    %rax,%rsi
    13a3:	48 8d 05 aa 0c 00 00 	lea    0xcaa(%rip),%rax        # 2054 <_IO_stdin_used+0x54>
    13aa:	48 89 c7             	mov    %rax,%rdi
    13ad:	b8 00 00 00 00       	mov    $0x0,%eax
    13b2:	e8 79 fd ff ff       	call   1130 <printf@plt>
    13b7:	48 8d 05 b2 0c 00 00 	lea    0xcb2(%rip),%rax        # 2070 <_IO_stdin_used+0x70>
    13be:	48 89 c7             	mov    %rax,%rdi
    13c1:	b8 00 00 00 00       	mov    $0x0,%eax
    13c6:	e8 65 fd ff ff       	call   1130 <printf@plt>
    13cb:	48 8d 45 e8          	lea    -0x18(%rbp),%rax
    13cf:	48 89 c6             	mov    %rax,%rsi
    13d2:	48 8d 05 c5 0c 00 00 	lea    0xcc5(%rip),%rax        # 209e <_IO_stdin_used+0x9e>
    13d9:	48 89 c7             	mov    %rax,%rdi
    13dc:	b8 00 00 00 00       	mov    $0x0,%eax
    13e1:	e8 9a fd ff ff       	call   1180 <__isoc99_scanf@plt>
    13e6:	48 8b 45 e8          	mov    -0x18(%rbp),%rax
    13ea:	48 89 c6             	mov    %rax,%rsi
    13ed:	48 8d 05 ae 0c 00 00 	lea    0xcae(%rip),%rax        # 20a2 <_IO_stdin_used+0xa2>
    13f4:	48 89 c7             	mov    %rax,%rdi
    13f7:	b8 00 00 00 00       	mov    $0x0,%eax
    13fc:	e8 2f fd ff ff       	call   1130 <printf@plt>
    1401:	48 8b 45 e8          	mov    -0x18(%rbp),%rax
    1405:	48 89 45 f0          	mov    %rax,-0x10(%rbp)
    1409:	48 8b 45 f0          	mov    -0x10(%rbp),%rax
    140d:	ff d0                	call   *%rax
    140f:	b8 00 00 00 00       	mov    $0x0,%eax
    1414:	48 8b 55 f8          	mov    -0x8(%rbp),%rdx
    1418:	64 48 2b 14 25 28 00 	sub    %fs:0x28,%rdx
    141f:	00 00 
    1421:	74 05                	je     1428 <main+0xdc>
    1423:	e8 f8 fc ff ff       	call   1120 <__stack_chk_fail@plt>
    1428:	c9                   	leave  
    1429:	c3                   	ret    

Disassembly of section .fini:

000000000000142c <_fini>:
    142c:	f3 0f 1e fa          	endbr64 
    1430:	48 83 ec 08          	sub    $0x8,%rsp
    1434:	48 83 c4 08          	add    $0x8,%rsp
    1438:	c3                   	ret    
