
./valley:     file format elf64-x86-64


Disassembly of section .init:

0000000000001000 <_init>:
    1000:	f3 0f 1e fa          	endbr64 
    1004:	48 83 ec 08          	sub    $0x8,%rsp
    1008:	48 8b 05 d9 2f 00 00 	mov    0x2fd9(%rip),%rax        # 3fe8 <__gmon_start__@Base>
    100f:	48 85 c0             	test   %rax,%rax
    1012:	74 02                	je     1016 <_init+0x16>
    1014:	ff d0                	call   *%rax
    1016:	48 83 c4 08          	add    $0x8,%rsp
    101a:	c3                   	ret    

Disassembly of section .plt:

0000000000001020 <.plt>:
    1020:	ff 35 52 2f 00 00    	push   0x2f52(%rip)        # 3f78 <_GLOBAL_OFFSET_TABLE_+0x8>
    1026:	ff 25 54 2f 00 00    	jmp    *0x2f54(%rip)        # 3f80 <_GLOBAL_OFFSET_TABLE_+0x10>
    102c:	0f 1f 40 00          	nopl   0x0(%rax)
    1030:	f3 0f 1e fa          	endbr64 
    1034:	68 00 00 00 00       	push   $0x0
    1039:	e9 e2 ff ff ff       	jmp    1020 <_init+0x20>
    103e:	66 90                	xchg   %ax,%ax
    1040:	f3 0f 1e fa          	endbr64 
    1044:	68 01 00 00 00       	push   $0x1
    1049:	e9 d2 ff ff ff       	jmp    1020 <_init+0x20>
    104e:	66 90                	xchg   %ax,%ax
    1050:	f3 0f 1e fa          	endbr64 
    1054:	68 02 00 00 00       	push   $0x2
    1059:	e9 c2 ff ff ff       	jmp    1020 <_init+0x20>
    105e:	66 90                	xchg   %ax,%ax
    1060:	f3 0f 1e fa          	endbr64 
    1064:	68 03 00 00 00       	push   $0x3
    1069:	e9 b2 ff ff ff       	jmp    1020 <_init+0x20>
    106e:	66 90                	xchg   %ax,%ax
    1070:	f3 0f 1e fa          	endbr64 
    1074:	68 04 00 00 00       	push   $0x4
    1079:	e9 a2 ff ff ff       	jmp    1020 <_init+0x20>
    107e:	66 90                	xchg   %ax,%ax
    1080:	f3 0f 1e fa          	endbr64 
    1084:	68 05 00 00 00       	push   $0x5
    1089:	e9 92 ff ff ff       	jmp    1020 <_init+0x20>
    108e:	66 90                	xchg   %ax,%ax
    1090:	f3 0f 1e fa          	endbr64 
    1094:	68 06 00 00 00       	push   $0x6
    1099:	e9 82 ff ff ff       	jmp    1020 <_init+0x20>
    109e:	66 90                	xchg   %ax,%ax
    10a0:	f3 0f 1e fa          	endbr64 
    10a4:	68 07 00 00 00       	push   $0x7
    10a9:	e9 72 ff ff ff       	jmp    1020 <_init+0x20>
    10ae:	66 90                	xchg   %ax,%ax
    10b0:	f3 0f 1e fa          	endbr64 
    10b4:	68 08 00 00 00       	push   $0x8
    10b9:	e9 62 ff ff ff       	jmp    1020 <_init+0x20>
    10be:	66 90                	xchg   %ax,%ax
    10c0:	f3 0f 1e fa          	endbr64 
    10c4:	68 09 00 00 00       	push   $0x9
    10c9:	e9 52 ff ff ff       	jmp    1020 <_init+0x20>
    10ce:	66 90                	xchg   %ax,%ax

Disassembly of section .plt.got:

00000000000010d0 <.plt.got>:
    10d0:	f3 0f 1e fa          	endbr64 
    10d4:	ff 25 1e 2f 00 00    	jmp    *0x2f1e(%rip)        # 3ff8 <__cxa_finalize@GLIBC_2.2.5>
    10da:	66 0f 1f 44 00 00    	nopw   0x0(%rax,%rax,1)

Disassembly of section .plt.sec:

00000000000010e0 <.plt.sec>:
    10e0:	f3 0f 1e fa          	endbr64 
    10e4:	ff 25 9e 2e 00 00    	jmp    *0x2e9e(%rip)        # 3f88 <puts@GLIBC_2.2.5>
    10ea:	66 0f 1f 44 00 00    	nopw   0x0(%rax,%rax,1)
    10f0:	f3 0f 1e fa          	endbr64 
    10f4:	ff 25 96 2e 00 00    	jmp    *0x2e96(%rip)        # 3f90 <fclose@GLIBC_2.2.5>
    10fa:	66 0f 1f 44 00 00    	nopw   0x0(%rax,%rax,1)
    1100:	f3 0f 1e fa          	endbr64 
    1104:	ff 25 8e 2e 00 00    	jmp    *0x2e8e(%rip)        # 3f98 <__stack_chk_fail@GLIBC_2.4>
    110a:	66 0f 1f 44 00 00    	nopw   0x0(%rax,%rax,1)
    1110:	f3 0f 1e fa          	endbr64 
    1114:	ff 25 86 2e 00 00    	jmp    *0x2e86(%rip)        # 3fa0 <printf@GLIBC_2.2.5>
    111a:	66 0f 1f 44 00 00    	nopw   0x0(%rax,%rax,1)
    1120:	f3 0f 1e fa          	endbr64 
    1124:	ff 25 7e 2e 00 00    	jmp    *0x2e7e(%rip)        # 3fa8 <fgets@GLIBC_2.2.5>
    112a:	66 0f 1f 44 00 00    	nopw   0x0(%rax,%rax,1)
    1130:	f3 0f 1e fa          	endbr64 
    1134:	ff 25 76 2e 00 00    	jmp    *0x2e76(%rip)        # 3fb0 <strcmp@GLIBC_2.2.5>
    113a:	66 0f 1f 44 00 00    	nopw   0x0(%rax,%rax,1)
    1140:	f3 0f 1e fa          	endbr64 
    1144:	ff 25 6e 2e 00 00    	jmp    *0x2e6e(%rip)        # 3fb8 <fflush@GLIBC_2.2.5>
    114a:	66 0f 1f 44 00 00    	nopw   0x0(%rax,%rax,1)
    1150:	f3 0f 1e fa          	endbr64 
    1154:	ff 25 66 2e 00 00    	jmp    *0x2e66(%rip)        # 3fc0 <fopen@GLIBC_2.2.5>
    115a:	66 0f 1f 44 00 00    	nopw   0x0(%rax,%rax,1)
    1160:	f3 0f 1e fa          	endbr64 
    1164:	ff 25 5e 2e 00 00    	jmp    *0x2e5e(%rip)        # 3fc8 <perror@GLIBC_2.2.5>
    116a:	66 0f 1f 44 00 00    	nopw   0x0(%rax,%rax,1)
    1170:	f3 0f 1e fa          	endbr64 
    1174:	ff 25 56 2e 00 00    	jmp    *0x2e56(%rip)        # 3fd0 <exit@GLIBC_2.2.5>
    117a:	66 0f 1f 44 00 00    	nopw   0x0(%rax,%rax,1)

Disassembly of section .text:

0000000000001180 <_start>:
    1180:	f3 0f 1e fa          	endbr64 
    1184:	31 ed                	xor    %ebp,%ebp
    1186:	49 89 d1             	mov    %rdx,%r9
    1189:	5e                   	pop    %rsi
    118a:	48 89 e2             	mov    %rsp,%rdx
    118d:	48 83 e4 f0          	and    $0xfffffffffffffff0,%rsp
    1191:	50                   	push   %rax
    1192:	54                   	push   %rsp
    1193:	45 31 c0             	xor    %r8d,%r8d
    1196:	31 c9                	xor    %ecx,%ecx
    1198:	48 8d 3d 62 02 00 00 	lea    0x262(%rip),%rdi        # 1401 <main>
    119f:	ff 15 33 2e 00 00    	call   *0x2e33(%rip)        # 3fd8 <__libc_start_main@GLIBC_2.34>
    11a5:	f4                   	hlt    
    11a6:	66 2e 0f 1f 84 00 00 	cs nopw 0x0(%rax,%rax,1)
    11ad:	00 00 00 

00000000000011b0 <deregister_tm_clones>:
    11b0:	48 8d 3d 59 2e 00 00 	lea    0x2e59(%rip),%rdi        # 4010 <stdout@GLIBC_2.2.5>
    11b7:	48 8d 05 52 2e 00 00 	lea    0x2e52(%rip),%rax        # 4010 <stdout@GLIBC_2.2.5>
    11be:	48 39 f8             	cmp    %rdi,%rax
    11c1:	74 15                	je     11d8 <deregister_tm_clones+0x28>
    11c3:	48 8b 05 16 2e 00 00 	mov    0x2e16(%rip),%rax        # 3fe0 <_ITM_deregisterTMCloneTable@Base>
    11ca:	48 85 c0             	test   %rax,%rax
    11cd:	74 09                	je     11d8 <deregister_tm_clones+0x28>
    11cf:	ff e0                	jmp    *%rax
    11d1:	0f 1f 80 00 00 00 00 	nopl   0x0(%rax)
    11d8:	c3                   	ret    
    11d9:	0f 1f 80 00 00 00 00 	nopl   0x0(%rax)

00000000000011e0 <register_tm_clones>:
    11e0:	48 8d 3d 29 2e 00 00 	lea    0x2e29(%rip),%rdi        # 4010 <stdout@GLIBC_2.2.5>
    11e7:	48 8d 35 22 2e 00 00 	lea    0x2e22(%rip),%rsi        # 4010 <stdout@GLIBC_2.2.5>
    11ee:	48 29 fe             	sub    %rdi,%rsi
    11f1:	48 89 f0             	mov    %rsi,%rax
    11f4:	48 c1 ee 3f          	shr    $0x3f,%rsi
    11f8:	48 c1 f8 03          	sar    $0x3,%rax
    11fc:	48 01 c6             	add    %rax,%rsi
    11ff:	48 d1 fe             	sar    %rsi
    1202:	74 14                	je     1218 <register_tm_clones+0x38>
    1204:	48 8b 05 e5 2d 00 00 	mov    0x2de5(%rip),%rax        # 3ff0 <_ITM_registerTMCloneTable@Base>
    120b:	48 85 c0             	test   %rax,%rax
    120e:	74 08                	je     1218 <register_tm_clones+0x38>
    1210:	ff e0                	jmp    *%rax
    1212:	66 0f 1f 44 00 00    	nopw   0x0(%rax,%rax,1)
    1218:	c3                   	ret    
    1219:	0f 1f 80 00 00 00 00 	nopl   0x0(%rax)

0000000000001220 <__do_global_dtors_aux>:
    1220:	f3 0f 1e fa          	endbr64 
    1224:	80 3d fd 2d 00 00 00 	cmpb   $0x0,0x2dfd(%rip)        # 4028 <completed.0>
    122b:	75 2b                	jne    1258 <__do_global_dtors_aux+0x38>
    122d:	55                   	push   %rbp
    122e:	48 83 3d c2 2d 00 00 	cmpq   $0x0,0x2dc2(%rip)        # 3ff8 <__cxa_finalize@GLIBC_2.2.5>
    1235:	00 
    1236:	48 89 e5             	mov    %rsp,%rbp
    1239:	74 0c                	je     1247 <__do_global_dtors_aux+0x27>
    123b:	48 8b 3d c6 2d 00 00 	mov    0x2dc6(%rip),%rdi        # 4008 <__dso_handle>
    1242:	e8 89 fe ff ff       	call   10d0 <_init+0xd0>
    1247:	e8 64 ff ff ff       	call   11b0 <deregister_tm_clones>
    124c:	c6 05 d5 2d 00 00 01 	movb   $0x1,0x2dd5(%rip)        # 4028 <completed.0>
    1253:	5d                   	pop    %rbp
    1254:	c3                   	ret    
    1255:	0f 1f 00             	nopl   (%rax)
    1258:	c3                   	ret    
    1259:	0f 1f 80 00 00 00 00 	nopl   0x0(%rax)

0000000000001260 <frame_dummy>:
    1260:	f3 0f 1e fa          	endbr64 
    1264:	e9 77 ff ff ff       	jmp    11e0 <register_tm_clones>

0000000000001269 <print_flag>:
    1269:	f3 0f 1e fa          	endbr64 
    126d:	55                   	push   %rbp
    126e:	48 89 e5             	mov    %rsp,%rbp
    1271:	48 83 ec 40          	sub    $0x40,%rsp
    1275:	64 48 8b 04 25 28 00 	mov    %fs:0x28,%rax
    127c:	00 00 
    127e:	48 89 45 f8          	mov    %rax,-0x8(%rbp)
    1282:	31 c0                	xor    %eax,%eax
    1284:	48 8d 05 7d 0d 00 00 	lea    0xd7d(%rip),%rax        # 2008 <_IO_stdin_used+0x8>
    128b:	48 89 c6             	mov    %rax,%rsi
    128e:	48 8d 05 75 0d 00 00 	lea    0xd75(%rip),%rax        # 200a <_IO_stdin_used+0xa>
    1295:	48 89 c7             	mov    %rax,%rdi
    1298:	e8 b3 fe ff ff       	call   1150 <_init+0x150>
    129d:	48 89 45 c8          	mov    %rax,-0x38(%rbp)
    12a1:	48 83 7d c8 00       	cmpq   $0x0,-0x38(%rbp)
    12a6:	75 19                	jne    12c1 <print_flag+0x58>
    12a8:	48 8d 05 71 0d 00 00 	lea    0xd71(%rip),%rax        # 2020 <_IO_stdin_used+0x20>
    12af:	48 89 c7             	mov    %rax,%rdi
    12b2:	e8 a9 fe ff ff       	call   1160 <_init+0x160>
    12b7:	bf 01 00 00 00       	mov    $0x1,%edi
    12bc:	e8 af fe ff ff       	call   1170 <_init+0x170>
    12c1:	48 8b 55 c8          	mov    -0x38(%rbp),%rdx
    12c5:	48 8d 45 d0          	lea    -0x30(%rbp),%rax
    12c9:	be 20 00 00 00       	mov    $0x20,%esi
    12ce:	48 89 c7             	mov    %rax,%rdi
    12d1:	e8 4a fe ff ff       	call   1120 <_init+0x120>
    12d6:	48 8d 45 d0          	lea    -0x30(%rbp),%rax
    12da:	48 89 c6             	mov    %rax,%rsi
    12dd:	48 8d 05 5c 0d 00 00 	lea    0xd5c(%rip),%rax        # 2040 <_IO_stdin_used+0x40>
    12e4:	48 89 c7             	mov    %rax,%rdi
    12e7:	b8 00 00 00 00       	mov    $0x0,%eax
    12ec:	e8 1f fe ff ff       	call   1110 <_init+0x110>
    12f1:	48 8b 45 c8          	mov    -0x38(%rbp),%rax
    12f5:	48 89 c7             	mov    %rax,%rdi
    12f8:	e8 f3 fd ff ff       	call   10f0 <_init+0xf0>
    12fd:	bf 00 00 00 00       	mov    $0x0,%edi
    1302:	e8 69 fe ff ff       	call   1170 <_init+0x170>

0000000000001307 <echo_valley>:
    1307:	f3 0f 1e fa          	endbr64 
    130b:	55                   	push   %rbp
    130c:	48 89 e5             	mov    %rsp,%rbp
    130f:	48 83 ec 70          	sub    $0x70,%rsp
    1313:	64 48 8b 04 25 28 00 	mov    %fs:0x28,%rax
    131a:	00 00 
    131c:	48 89 45 f8          	mov    %rax,-0x8(%rbp)
    1320:	31 c0                	xor    %eax,%eax
    1322:	48 8d 05 37 0d 00 00 	lea    0xd37(%rip),%rax        # 2060 <_IO_stdin_used+0x60>
    1329:	48 89 c7             	mov    %rax,%rdi
    132c:	e8 af fd ff ff       	call   10e0 <_init+0xe0>
    1331:	48 8b 05 d8 2c 00 00 	mov    0x2cd8(%rip),%rax        # 4010 <stdout@GLIBC_2.2.5>
    1338:	48 89 c7             	mov    %rax,%rdi
    133b:	e8 00 fe ff ff       	call   1140 <_init+0x140>
    1340:	48 8b 15 d9 2c 00 00 	mov    0x2cd9(%rip),%rdx        # 4020 <stdin@GLIBC_2.2.5>
    1347:	48 8d 45 90          	lea    -0x70(%rbp),%rax
    134b:	be 64 00 00 00       	mov    $0x64,%esi
    1350:	48 89 c7             	mov    %rax,%rdi
    1353:	e8 c8 fd ff ff       	call   1120 <_init+0x120>
    1358:	48 85 c0             	test   %rax,%rax
    135b:	75 19                	jne    1376 <echo_valley+0x6f>
    135d:	48 8d 05 27 0d 00 00 	lea    0xd27(%rip),%rax        # 208b <_IO_stdin_used+0x8b>
    1364:	48 89 c7             	mov    %rax,%rdi
    1367:	e8 74 fd ff ff       	call   10e0 <_init+0xe0>
    136c:	bf 00 00 00 00       	mov    $0x0,%edi
    1371:	e8 fa fd ff ff       	call   1170 <_init+0x170>
    1376:	48 8d 45 90          	lea    -0x70(%rbp),%rax
    137a:	48 8d 15 24 0d 00 00 	lea    0xd24(%rip),%rdx        # 20a5 <_IO_stdin_used+0xa5>
    1381:	48 89 d6             	mov    %rdx,%rsi
    1384:	48 89 c7             	mov    %rax,%rdi
    1387:	e8 a4 fd ff ff       	call   1130 <_init+0x130>
    138c:	85 c0                	test   %eax,%eax
    138e:	75 31                	jne    13c1 <echo_valley+0xba>
    1390:	48 8d 05 14 0d 00 00 	lea    0xd14(%rip),%rax        # 20ab <_IO_stdin_used+0xab>
    1397:	48 89 c7             	mov    %rax,%rdi
    139a:	e8 41 fd ff ff       	call   10e0 <_init+0xe0>
    139f:	90                   	nop
    13a0:	48 8b 05 69 2c 00 00 	mov    0x2c69(%rip),%rax        # 4010 <stdout@GLIBC_2.2.5>
    13a7:	48 89 c7             	mov    %rax,%rdi
    13aa:	e8 91 fd ff ff       	call   1140 <_init+0x140>
    13af:	90                   	nop
    13b0:	48 8b 45 f8          	mov    -0x8(%rbp),%rax
    13b4:	64 48 2b 04 25 28 00 	sub    %fs:0x28,%rax
    13bb:	00 00 
    13bd:	74 40                	je     13ff <echo_valley+0xf8>
    13bf:	eb 39                	jmp    13fa <echo_valley+0xf3>
    13c1:	48 8d 05 f9 0c 00 00 	lea    0xcf9(%rip),%rax        # 20c1 <_IO_stdin_used+0xc1>
    13c8:	48 89 c7             	mov    %rax,%rdi
    13cb:	b8 00 00 00 00       	mov    $0x0,%eax
    13d0:	e8 3b fd ff ff       	call   1110 <_init+0x110>
    13d5:	48 8d 45 90          	lea    -0x70(%rbp),%rax
    13d9:	48 89 c7             	mov    %rax,%rdi
    13dc:	b8 00 00 00 00       	mov    $0x0,%eax
    13e1:	e8 2a fd ff ff       	call   1110 <_init+0x110>
    13e6:	48 8b 05 23 2c 00 00 	mov    0x2c23(%rip),%rax        # 4010 <stdout@GLIBC_2.2.5>
    13ed:	48 89 c7             	mov    %rax,%rdi
    13f0:	e8 4b fd ff ff       	call   1140 <_init+0x140>
    13f5:	e9 37 ff ff ff       	jmp    1331 <echo_valley+0x2a>
    13fa:	e8 01 fd ff ff       	call   1100 <_init+0x100>
    13ff:	c9                   	leave  
    1400:	c3                   	ret    

0000000000001401 <main>:
    1401:	f3 0f 1e fa          	endbr64 
    1405:	55                   	push   %rbp
    1406:	48 89 e5             	mov    %rsp,%rbp
    1409:	b8 00 00 00 00       	mov    $0x0,%eax
    140e:	e8 f4 fe ff ff       	call   1307 <echo_valley>
    1413:	b8 00 00 00 00       	mov    $0x0,%eax
    1418:	5d                   	pop    %rbp
    1419:	c3                   	ret    

Disassembly of section .fini:

000000000000141c <_fini>:
    141c:	f3 0f 1e fa          	endbr64 
    1420:	48 83 ec 08          	sub    $0x8,%rsp
    1424:	48 83 c4 08          	add    $0x8,%rsp
    1428:	c3                   	ret    
