
./vuln:     file format elf64-x86-64


Disassembly of section .init:

0000000000001000 <_init>:
    1000:	f3 0f 1e fa          	endbr64 
    1004:	48 83 ec 08          	sub    $0x8,%rsp
    1008:	48 8b 05 d9 2f 00 00 	mov    0x2fd9(%rip),%rax        # 3fe8 <__gmon_start__>
    100f:	48 85 c0             	test   %rax,%rax
    1012:	74 02                	je     1016 <_init+0x16>
    1014:	ff d0                	call   *%rax
    1016:	48 83 c4 08          	add    $0x8,%rsp
    101a:	c3                   	ret    

Disassembly of section .plt:

0000000000001020 <.plt>:
    1020:	ff 35 42 2f 00 00    	push   0x2f42(%rip)        # 3f68 <_GLOBAL_OFFSET_TABLE_+0x8>
    1026:	f2 ff 25 43 2f 00 00 	bnd jmp *0x2f43(%rip)        # 3f70 <_GLOBAL_OFFSET_TABLE_+0x10>
    102d:	0f 1f 00             	nopl   (%rax)
    1030:	f3 0f 1e fa          	endbr64 
    1034:	68 00 00 00 00       	push   $0x0
    1039:	f2 e9 e1 ff ff ff    	bnd jmp 1020 <.plt>
    103f:	90                   	nop
    1040:	f3 0f 1e fa          	endbr64 
    1044:	68 01 00 00 00       	push   $0x1
    1049:	f2 e9 d1 ff ff ff    	bnd jmp 1020 <.plt>
    104f:	90                   	nop
    1050:	f3 0f 1e fa          	endbr64 
    1054:	68 02 00 00 00       	push   $0x2
    1059:	f2 e9 c1 ff ff ff    	bnd jmp 1020 <.plt>
    105f:	90                   	nop
    1060:	f3 0f 1e fa          	endbr64 
    1064:	68 03 00 00 00       	push   $0x3
    1069:	f2 e9 b1 ff ff ff    	bnd jmp 1020 <.plt>
    106f:	90                   	nop
    1070:	f3 0f 1e fa          	endbr64 
    1074:	68 04 00 00 00       	push   $0x4
    1079:	f2 e9 a1 ff ff ff    	bnd jmp 1020 <.plt>
    107f:	90                   	nop
    1080:	f3 0f 1e fa          	endbr64 
    1084:	68 05 00 00 00       	push   $0x5
    1089:	f2 e9 91 ff ff ff    	bnd jmp 1020 <.plt>
    108f:	90                   	nop
    1090:	f3 0f 1e fa          	endbr64 
    1094:	68 06 00 00 00       	push   $0x6
    1099:	f2 e9 81 ff ff ff    	bnd jmp 1020 <.plt>
    109f:	90                   	nop
    10a0:	f3 0f 1e fa          	endbr64 
    10a4:	68 07 00 00 00       	push   $0x7
    10a9:	f2 e9 71 ff ff ff    	bnd jmp 1020 <.plt>
    10af:	90                   	nop
    10b0:	f3 0f 1e fa          	endbr64 
    10b4:	68 08 00 00 00       	push   $0x8
    10b9:	f2 e9 61 ff ff ff    	bnd jmp 1020 <.plt>
    10bf:	90                   	nop
    10c0:	f3 0f 1e fa          	endbr64 
    10c4:	68 09 00 00 00       	push   $0x9
    10c9:	f2 e9 51 ff ff ff    	bnd jmp 1020 <.plt>
    10cf:	90                   	nop
    10d0:	f3 0f 1e fa          	endbr64 
    10d4:	68 0a 00 00 00       	push   $0xa
    10d9:	f2 e9 41 ff ff ff    	bnd jmp 1020 <.plt>
    10df:	90                   	nop
    10e0:	f3 0f 1e fa          	endbr64 
    10e4:	68 0b 00 00 00       	push   $0xb
    10e9:	f2 e9 31 ff ff ff    	bnd jmp 1020 <.plt>
    10ef:	90                   	nop

Disassembly of section .plt.got:

00000000000010f0 <__cxa_finalize@plt>:
    10f0:	f3 0f 1e fa          	endbr64 
    10f4:	f2 ff 25 fd 2e 00 00 	bnd jmp *0x2efd(%rip)        # 3ff8 <__cxa_finalize@GLIBC_2.2.5>
    10fb:	0f 1f 44 00 00       	nopl   0x0(%rax,%rax,1)

Disassembly of section .plt.sec:

0000000000001100 <putchar@plt>:
    1100:	f3 0f 1e fa          	endbr64 
    1104:	f2 ff 25 6d 2e 00 00 	bnd jmp *0x2e6d(%rip)        # 3f78 <putchar@GLIBC_2.2.5>
    110b:	0f 1f 44 00 00       	nopl   0x0(%rax,%rax,1)

0000000000001110 <puts@plt>:
    1110:	f3 0f 1e fa          	endbr64 
    1114:	f2 ff 25 65 2e 00 00 	bnd jmp *0x2e65(%rip)        # 3f80 <puts@GLIBC_2.2.5>
    111b:	0f 1f 44 00 00       	nopl   0x0(%rax,%rax,1)

0000000000001120 <fclose@plt>:
    1120:	f3 0f 1e fa          	endbr64 
    1124:	f2 ff 25 5d 2e 00 00 	bnd jmp *0x2e5d(%rip)        # 3f88 <fclose@GLIBC_2.2.5>
    112b:	0f 1f 44 00 00       	nopl   0x0(%rax,%rax,1)

0000000000001130 <__stack_chk_fail@plt>:
    1130:	f3 0f 1e fa          	endbr64 
    1134:	f2 ff 25 55 2e 00 00 	bnd jmp *0x2e55(%rip)        # 3f90 <__stack_chk_fail@GLIBC_2.4>
    113b:	0f 1f 44 00 00       	nopl   0x0(%rax,%rax,1)

0000000000001140 <printf@plt>:
    1140:	f3 0f 1e fa          	endbr64 
    1144:	f2 ff 25 4d 2e 00 00 	bnd jmp *0x2e4d(%rip)        # 3f98 <printf@GLIBC_2.2.5>
    114b:	0f 1f 44 00 00       	nopl   0x0(%rax,%rax,1)

0000000000001150 <fgetc@plt>:
    1150:	f3 0f 1e fa          	endbr64 
    1154:	f2 ff 25 45 2e 00 00 	bnd jmp *0x2e45(%rip)        # 3fa0 <fgetc@GLIBC_2.2.5>
    115b:	0f 1f 44 00 00       	nopl   0x0(%rax,%rax,1)

0000000000001160 <fgets@plt>:
    1160:	f3 0f 1e fa          	endbr64 
    1164:	f2 ff 25 3d 2e 00 00 	bnd jmp *0x2e3d(%rip)        # 3fa8 <fgets@GLIBC_2.2.5>
    116b:	0f 1f 44 00 00       	nopl   0x0(%rax,%rax,1)

0000000000001170 <signal@plt>:
    1170:	f3 0f 1e fa          	endbr64 
    1174:	f2 ff 25 35 2e 00 00 	bnd jmp *0x2e35(%rip)        # 3fb0 <signal@GLIBC_2.2.5>
    117b:	0f 1f 44 00 00       	nopl   0x0(%rax,%rax,1)

0000000000001180 <setvbuf@plt>:
    1180:	f3 0f 1e fa          	endbr64 
    1184:	f2 ff 25 2d 2e 00 00 	bnd jmp *0x2e2d(%rip)        # 3fb8 <setvbuf@GLIBC_2.2.5>
    118b:	0f 1f 44 00 00       	nopl   0x0(%rax,%rax,1)

0000000000001190 <fopen@plt>:
    1190:	f3 0f 1e fa          	endbr64 
    1194:	f2 ff 25 25 2e 00 00 	bnd jmp *0x2e25(%rip)        # 3fc0 <fopen@GLIBC_2.2.5>
    119b:	0f 1f 44 00 00       	nopl   0x0(%rax,%rax,1)

00000000000011a0 <__isoc99_scanf@plt>:
    11a0:	f3 0f 1e fa          	endbr64 
    11a4:	f2 ff 25 1d 2e 00 00 	bnd jmp *0x2e1d(%rip)        # 3fc8 <__isoc99_scanf@GLIBC_2.7>
    11ab:	0f 1f 44 00 00       	nopl   0x0(%rax,%rax,1)

00000000000011b0 <exit@plt>:
    11b0:	f3 0f 1e fa          	endbr64 
    11b4:	f2 ff 25 15 2e 00 00 	bnd jmp *0x2e15(%rip)        # 3fd0 <exit@GLIBC_2.2.5>
    11bb:	0f 1f 44 00 00       	nopl   0x0(%rax,%rax,1)

Disassembly of section .text:

00000000000011c0 <_start>:
    11c0:	f3 0f 1e fa          	endbr64 
    11c4:	31 ed                	xor    %ebp,%ebp
    11c6:	49 89 d1             	mov    %rdx,%r9
    11c9:	5e                   	pop    %rsi
    11ca:	48 89 e2             	mov    %rsp,%rdx
    11cd:	48 83 e4 f0          	and    $0xfffffffffffffff0,%rsp
    11d1:	50                   	push   %rax
    11d2:	54                   	push   %rsp
    11d3:	4c 8d 05 e6 02 00 00 	lea    0x2e6(%rip),%r8        # 14c0 <__libc_csu_fini>
    11da:	48 8d 0d 6f 02 00 00 	lea    0x26f(%rip),%rcx        # 1450 <__libc_csu_init>
    11e1:	48 8d 3d 18 02 00 00 	lea    0x218(%rip),%rdi        # 1400 <main>
    11e8:	ff 15 f2 2d 00 00    	call   *0x2df2(%rip)        # 3fe0 <__libc_start_main@GLIBC_2.2.5>
    11ee:	f4                   	hlt    
    11ef:	90                   	nop

00000000000011f0 <deregister_tm_clones>:
    11f0:	48 8d 3d 19 2e 00 00 	lea    0x2e19(%rip),%rdi        # 4010 <stdout@GLIBC_2.2.5>
    11f7:	48 8d 05 12 2e 00 00 	lea    0x2e12(%rip),%rax        # 4010 <stdout@GLIBC_2.2.5>
    11fe:	48 39 f8             	cmp    %rdi,%rax
    1201:	74 15                	je     1218 <deregister_tm_clones+0x28>
    1203:	48 8b 05 ce 2d 00 00 	mov    0x2dce(%rip),%rax        # 3fd8 <_ITM_deregisterTMCloneTable>
    120a:	48 85 c0             	test   %rax,%rax
    120d:	74 09                	je     1218 <deregister_tm_clones+0x28>
    120f:	ff e0                	jmp    *%rax
    1211:	0f 1f 80 00 00 00 00 	nopl   0x0(%rax)
    1218:	c3                   	ret    
    1219:	0f 1f 80 00 00 00 00 	nopl   0x0(%rax)

0000000000001220 <register_tm_clones>:
    1220:	48 8d 3d e9 2d 00 00 	lea    0x2de9(%rip),%rdi        # 4010 <stdout@GLIBC_2.2.5>
    1227:	48 8d 35 e2 2d 00 00 	lea    0x2de2(%rip),%rsi        # 4010 <stdout@GLIBC_2.2.5>
    122e:	48 29 fe             	sub    %rdi,%rsi
    1231:	48 89 f0             	mov    %rsi,%rax
    1234:	48 c1 ee 3f          	shr    $0x3f,%rsi
    1238:	48 c1 f8 03          	sar    $0x3,%rax
    123c:	48 01 c6             	add    %rax,%rsi
    123f:	48 d1 fe             	sar    %rsi
    1242:	74 14                	je     1258 <register_tm_clones+0x38>
    1244:	48 8b 05 a5 2d 00 00 	mov    0x2da5(%rip),%rax        # 3ff0 <_ITM_registerTMCloneTable>
    124b:	48 85 c0             	test   %rax,%rax
    124e:	74 08                	je     1258 <register_tm_clones+0x38>
    1250:	ff e0                	jmp    *%rax
    1252:	66 0f 1f 44 00 00    	nopw   0x0(%rax,%rax,1)
    1258:	c3                   	ret    
    1259:	0f 1f 80 00 00 00 00 	nopl   0x0(%rax)

0000000000001260 <__do_global_dtors_aux>:
    1260:	f3 0f 1e fa          	endbr64 
    1264:	80 3d bd 2d 00 00 00 	cmpb   $0x0,0x2dbd(%rip)        # 4028 <completed.8061>
    126b:	75 2b                	jne    1298 <__do_global_dtors_aux+0x38>
    126d:	55                   	push   %rbp
    126e:	48 83 3d 82 2d 00 00 	cmpq   $0x0,0x2d82(%rip)        # 3ff8 <__cxa_finalize@GLIBC_2.2.5>
    1275:	00 
    1276:	48 89 e5             	mov    %rsp,%rbp
    1279:	74 0c                	je     1287 <__do_global_dtors_aux+0x27>
    127b:	48 8b 3d 86 2d 00 00 	mov    0x2d86(%rip),%rdi        # 4008 <__dso_handle>
    1282:	e8 69 fe ff ff       	call   10f0 <__cxa_finalize@plt>
    1287:	e8 64 ff ff ff       	call   11f0 <deregister_tm_clones>
    128c:	c6 05 95 2d 00 00 01 	movb   $0x1,0x2d95(%rip)        # 4028 <completed.8061>
    1293:	5d                   	pop    %rbp
    1294:	c3                   	ret    
    1295:	0f 1f 00             	nopl   (%rax)
    1298:	c3                   	ret    
    1299:	0f 1f 80 00 00 00 00 	nopl   0x0(%rax)

00000000000012a0 <frame_dummy>:
    12a0:	f3 0f 1e fa          	endbr64 
    12a4:	e9 77 ff ff ff       	jmp    1220 <register_tm_clones>

00000000000012a9 <segfault_handler>:
    12a9:	f3 0f 1e fa          	endbr64 
    12ad:	55                   	push   %rbp
    12ae:	48 89 e5             	mov    %rsp,%rbp
    12b1:	48 8d 3d 50 0d 00 00 	lea    0xd50(%rip),%rdi        # 2008 <_IO_stdin_used+0x8>
    12b8:	e8 53 fe ff ff       	call   1110 <puts@plt>
    12bd:	bf 00 00 00 00       	mov    $0x0,%edi
    12c2:	e8 e9 fe ff ff       	call   11b0 <exit@plt>

00000000000012c7 <call_functions>:
    12c7:	f3 0f 1e fa          	endbr64 
    12cb:	55                   	push   %rbp
    12cc:	48 89 e5             	mov    %rsp,%rbp
    12cf:	48 83 ec 60          	sub    $0x60,%rsp
    12d3:	64 48 8b 04 25 28 00 	mov    %fs:0x28,%rax
    12da:	00 00 
    12dc:	48 89 45 f8          	mov    %rax,-0x8(%rbp)
    12e0:	31 c0                	xor    %eax,%eax
    12e2:	48 8d 3d 45 0d 00 00 	lea    0xd45(%rip),%rdi        # 202e <_IO_stdin_used+0x2e>
    12e9:	b8 00 00 00 00       	mov    $0x0,%eax
    12ee:	e8 4d fe ff ff       	call   1140 <printf@plt>
    12f3:	48 8b 15 26 2d 00 00 	mov    0x2d26(%rip),%rdx        # 4020 <stdin@GLIBC_2.2.5>
    12fa:	48 8d 45 b0          	lea    -0x50(%rbp),%rax
    12fe:	be 40 00 00 00       	mov    $0x40,%esi
    1303:	48 89 c7             	mov    %rax,%rdi
    1306:	e8 55 fe ff ff       	call   1160 <fgets@plt>
    130b:	48 8d 45 b0          	lea    -0x50(%rbp),%rax
    130f:	48 89 c7             	mov    %rax,%rdi
    1312:	b8 00 00 00 00       	mov    $0x0,%eax
    1317:	e8 24 fe ff ff       	call   1140 <printf@plt>
    131c:	48 8d 3d 1d 0d 00 00 	lea    0xd1d(%rip),%rdi        # 2040 <_IO_stdin_used+0x40>
    1323:	b8 00 00 00 00       	mov    $0x0,%eax
    1328:	e8 13 fe ff ff       	call   1140 <printf@plt>
    132d:	48 8d 45 a0          	lea    -0x60(%rbp),%rax
    1331:	48 89 c6             	mov    %rax,%rsi
    1334:	48 8d 3d 34 0d 00 00 	lea    0xd34(%rip),%rdi        # 206f <_IO_stdin_used+0x6f>
    133b:	b8 00 00 00 00       	mov    $0x0,%eax
    1340:	e8 5b fe ff ff       	call   11a0 <__isoc99_scanf@plt>
    1345:	48 8b 45 a0          	mov    -0x60(%rbp),%rax
    1349:	48 89 45 a8          	mov    %rax,-0x58(%rbp)
    134d:	48 8b 45 a8          	mov    -0x58(%rbp),%rax
    1351:	ff d0                	call   *%rax
    1353:	90                   	nop
    1354:	48 8b 45 f8          	mov    -0x8(%rbp),%rax
    1358:	64 48 33 04 25 28 00 	xor    %fs:0x28,%rax
    135f:	00 00 
    1361:	74 05                	je     1368 <call_functions+0xa1>
    1363:	e8 c8 fd ff ff       	call   1130 <__stack_chk_fail@plt>
    1368:	c9                   	leave  
    1369:	c3                   	ret    

000000000000136a <win>:
    136a:	f3 0f 1e fa          	endbr64 
    136e:	55                   	push   %rbp
    136f:	48 89 e5             	mov    %rsp,%rbp
    1372:	48 83 ec 10          	sub    $0x10,%rsp
    1376:	48 8d 3d f6 0c 00 00 	lea    0xcf6(%rip),%rdi        # 2073 <_IO_stdin_used+0x73>
    137d:	e8 8e fd ff ff       	call   1110 <puts@plt>
    1382:	48 8d 35 f3 0c 00 00 	lea    0xcf3(%rip),%rsi        # 207c <_IO_stdin_used+0x7c>
    1389:	48 8d 3d ee 0c 00 00 	lea    0xcee(%rip),%rdi        # 207e <_IO_stdin_used+0x7e>
    1390:	e8 fb fd ff ff       	call   1190 <fopen@plt>
    1395:	48 89 45 f8          	mov    %rax,-0x8(%rbp)
    1399:	48 83 7d f8 00       	cmpq   $0x0,-0x8(%rbp)
    139e:	75 16                	jne    13b6 <win+0x4c>
    13a0:	48 8d 3d e0 0c 00 00 	lea    0xce0(%rip),%rdi        # 2087 <_IO_stdin_used+0x87>
    13a7:	e8 64 fd ff ff       	call   1110 <puts@plt>
    13ac:	bf 00 00 00 00       	mov    $0x0,%edi
    13b1:	e8 fa fd ff ff       	call   11b0 <exit@plt>
    13b6:	48 8b 45 f8          	mov    -0x8(%rbp),%rax
    13ba:	48 89 c7             	mov    %rax,%rdi
    13bd:	e8 8e fd ff ff       	call   1150 <fgetc@plt>
    13c2:	88 45 f7             	mov    %al,-0x9(%rbp)
    13c5:	eb 1a                	jmp    13e1 <win+0x77>
    13c7:	0f be 45 f7          	movsbl -0x9(%rbp),%eax
    13cb:	89 c7                	mov    %eax,%edi
    13cd:	e8 2e fd ff ff       	call   1100 <putchar@plt>
    13d2:	48 8b 45 f8          	mov    -0x8(%rbp),%rax
    13d6:	48 89 c7             	mov    %rax,%rdi
    13d9:	e8 72 fd ff ff       	call   1150 <fgetc@plt>
    13de:	88 45 f7             	mov    %al,-0x9(%rbp)
    13e1:	80 7d f7 ff          	cmpb   $0xff,-0x9(%rbp)
    13e5:	75 e0                	jne    13c7 <win+0x5d>
    13e7:	bf 0a 00 00 00       	mov    $0xa,%edi
    13ec:	e8 0f fd ff ff       	call   1100 <putchar@plt>
    13f1:	48 8b 45 f8          	mov    -0x8(%rbp),%rax
    13f5:	48 89 c7             	mov    %rax,%rdi
    13f8:	e8 23 fd ff ff       	call   1120 <fclose@plt>
    13fd:	90                   	nop
    13fe:	c9                   	leave  
    13ff:	c3                   	ret    

0000000000001400 <main>:
    1400:	f3 0f 1e fa          	endbr64 
    1404:	55                   	push   %rbp
    1405:	48 89 e5             	mov    %rsp,%rbp
    1408:	48 8d 35 9a fe ff ff 	lea    -0x166(%rip),%rsi        # 12a9 <segfault_handler>
    140f:	bf 0b 00 00 00       	mov    $0xb,%edi
    1414:	e8 57 fd ff ff       	call   1170 <signal@plt>
    1419:	48 8b 05 f0 2b 00 00 	mov    0x2bf0(%rip),%rax        # 4010 <stdout@GLIBC_2.2.5>
    1420:	b9 00 00 00 00       	mov    $0x0,%ecx
    1425:	ba 02 00 00 00       	mov    $0x2,%edx
    142a:	be 00 00 00 00       	mov    $0x0,%esi
    142f:	48 89 c7             	mov    %rax,%rdi
    1432:	e8 49 fd ff ff       	call   1180 <setvbuf@plt>
    1437:	b8 00 00 00 00       	mov    $0x0,%eax
    143c:	e8 86 fe ff ff       	call   12c7 <call_functions>
    1441:	b8 00 00 00 00       	mov    $0x0,%eax
    1446:	5d                   	pop    %rbp
    1447:	c3                   	ret    
    1448:	0f 1f 84 00 00 00 00 	nopl   0x0(%rax,%rax,1)
    144f:	00 

0000000000001450 <__libc_csu_init>:
    1450:	f3 0f 1e fa          	endbr64 
    1454:	41 57                	push   %r15
    1456:	4c 8d 3d 03 29 00 00 	lea    0x2903(%rip),%r15        # 3d60 <__frame_dummy_init_array_entry>
    145d:	41 56                	push   %r14
    145f:	49 89 d6             	mov    %rdx,%r14
    1462:	41 55                	push   %r13
    1464:	49 89 f5             	mov    %rsi,%r13
    1467:	41 54                	push   %r12
    1469:	41 89 fc             	mov    %edi,%r12d
    146c:	55                   	push   %rbp
    146d:	48 8d 2d f4 28 00 00 	lea    0x28f4(%rip),%rbp        # 3d68 <__do_global_dtors_aux_fini_array_entry>
    1474:	53                   	push   %rbx
    1475:	4c 29 fd             	sub    %r15,%rbp
    1478:	48 83 ec 08          	sub    $0x8,%rsp
    147c:	e8 7f fb ff ff       	call   1000 <_init>
    1481:	48 c1 fd 03          	sar    $0x3,%rbp
    1485:	74 1f                	je     14a6 <__libc_csu_init+0x56>
    1487:	31 db                	xor    %ebx,%ebx
    1489:	0f 1f 80 00 00 00 00 	nopl   0x0(%rax)
    1490:	4c 89 f2             	mov    %r14,%rdx
    1493:	4c 89 ee             	mov    %r13,%rsi
    1496:	44 89 e7             	mov    %r12d,%edi
    1499:	41 ff 14 df          	call   *(%r15,%rbx,8)
    149d:	48 83 c3 01          	add    $0x1,%rbx
    14a1:	48 39 dd             	cmp    %rbx,%rbp
    14a4:	75 ea                	jne    1490 <__libc_csu_init+0x40>
    14a6:	48 83 c4 08          	add    $0x8,%rsp
    14aa:	5b                   	pop    %rbx
    14ab:	5d                   	pop    %rbp
    14ac:	41 5c                	pop    %r12
    14ae:	41 5d                	pop    %r13
    14b0:	41 5e                	pop    %r14
    14b2:	41 5f                	pop    %r15
    14b4:	c3                   	ret    
    14b5:	66 66 2e 0f 1f 84 00 	data16 cs nopw 0x0(%rax,%rax,1)
    14bc:	00 00 00 00 

00000000000014c0 <__libc_csu_fini>:
    14c0:	f3 0f 1e fa          	endbr64 
    14c4:	c3                   	ret    

Disassembly of section .fini:

00000000000014c8 <_fini>:
    14c8:	f3 0f 1e fa          	endbr64 
    14cc:	48 83 ec 08          	sub    $0x8,%rsp
    14d0:	48 83 c4 08          	add    $0x8,%rsp
    14d4:	c3                   	ret    
